target datalayout = "e-m:e-p270:32:32-p271:32:32-p272:64:64-i64:64-i128:128-f80:128-n8:16:32:64-S128"
target triple = "x86_64-pc-linux-gnu"

%struct._lv_textarea_t = type { %struct._lv_obj_t, ptr, ptr, ptr, ptr, ptr, i32, i32, %struct.anon, i32, i32, i8 }
%struct._lv_obj_t = type { ptr, ptr, ptr, ptr, ptr, %struct.lv_area_t, i32, i16, i16 }
%struct.lv_area_t = type { i32, i32, i32, i32 }
%struct.anon = type { i32, i32, %struct.lv_area_t, i32, i8 }

; Function Attrs: inlinehint nounwind uwtable
define internal void @lv_area_copy(ptr noundef %0, ptr noundef %1) #4 {
  %3 = alloca ptr, align 8
  %4 = alloca ptr, align 8
  store ptr %0, ptr %3, align 8, !tbaa !34
  store ptr %1, ptr %4, align 8, !tbaa !34
  %5 = load ptr, ptr %4, align 8, !tbaa !34
  %6 = getelementptr inbounds nuw %struct.lv_area_t, ptr %5, i32 0, i32 0
  %7 = load i32, ptr %6, align 4, !tbaa !51
  %8 = load ptr, ptr %3, align 8, !tbaa !34
  %9 = getelementptr inbounds nuw %struct.lv_area_t, ptr %8, i32 0, i32 0
  store i32 %7, ptr %9, align 4, !tbaa !51
  %10 = load ptr, ptr %4, align 8, !tbaa !34
  %11 = getelementptr inbounds nuw %struct.lv_area_t, ptr %10, i32 0, i32 1
  %12 = load i32, ptr %11, align 4, !tbaa !52
  %13 = load ptr, ptr %3, align 8, !tbaa !34
  %14 = getelementptr inbounds nuw %struct.lv_area_t, ptr %13, i32 0, i32 1
  store i32 %12, ptr %14, align 4, !tbaa !52
  %15 = load ptr, ptr %4, align 8, !tbaa !34
  %16 = getelementptr inbounds nuw %struct.lv_area_t, ptr %15, i32 0, i32 2
  %17 = load i32, ptr %16, align 4, !tbaa !53
  %18 = load ptr, ptr %3, align 8, !tbaa !34
  %19 = getelementptr inbounds nuw %struct.lv_area_t, ptr %18, i32 0, i32 2
  store i32 %17, ptr %19, align 4, !tbaa !53
  %20 = load ptr, ptr %4, align 8, !tbaa !34
  %21 = getelementptr inbounds nuw %struct.lv_area_t, ptr %20, i32 0, i32 3
  %22 = load i32, ptr %21, align 4, !tbaa !54
  %23 = load ptr, ptr %3, align 8, !tbaa !34
  %24 = getelementptr inbounds nuw %struct.lv_area_t, ptr %23, i32 0, i32 3
  store i32 %22, ptr %24, align 4, !tbaa !54
  ret void
}

; Function Attrs: nounwind uwtable
define internal void @cursor_blink_anim_cb(ptr noundef %0, i32 noundef %1) #0 {
  %3 = alloca ptr, align 8
  %4 = alloca i32, align 4
  %5 = alloca ptr, align 8
  %6 = alloca %struct.lv_area_t, align 4
  store ptr %0, ptr %3, align 8, !tbaa !34
  store i32 %1, ptr %4, align 4, !tbaa !32
  call void @llvm.lifetime.start.p0(i64 8, ptr %5) #6
  %7 = load ptr, ptr %3, align 8, !tbaa !34
  store ptr %7, ptr %5, align 8, !tbaa !10
  %8 = load i32, ptr %4, align 4, !tbaa !32
  %9 = load ptr, ptr %5, align 8, !tbaa !10
  %10 = getelementptr inbounds nuw %struct._lv_textarea_t, ptr %9, i32 0, i32 8
  %11 = getelementptr inbounds nuw %struct.anon, ptr %10, i32 0, i32 4
  %12 = load i8, ptr %11, align 4
  %13 = and i8 %12, 1
  %14 = zext i8 %13 to i32
  %15 = icmp ne i32 %8, %14
  br i1 %15, label %16, label %68

16:                                               ; preds = %2
  %17 = load i32, ptr %4, align 4, !tbaa !32
  %18 = icmp ne i32 %17, 0
  %19 = select i1 %18, i32 1, i32 0
  %20 = trunc i32 %19 to i8
  %21 = load ptr, ptr %5, align 8, !tbaa !10
  %22 = getelementptr inbounds nuw %struct._lv_textarea_t, ptr %21, i32 0, i32 8
  %23 = getelementptr inbounds nuw %struct.anon, ptr %22, i32 0, i32 4
  %24 = load i8, ptr %23, align 4
  %25 = and i8 %20, 1
  %26 = and i8 %24, -2
  %27 = or i8 %26, %25
  store i8 %27, ptr %23, align 4
  call void @llvm.lifetime.start.p0(i64 16, ptr %6) #6
  %28 = load ptr, ptr %5, align 8, !tbaa !10
  %29 = getelementptr inbounds nuw %struct._lv_textarea_t, ptr %28, i32 0, i32 8
  %30 = getelementptr inbounds nuw %struct.anon, ptr %29, i32 0, i32 2
  call void @lv_area_copy(ptr noundef %6, ptr noundef %30)
  %31 = load ptr, ptr %5, align 8, !tbaa !10
  %32 = getelementptr inbounds nuw %struct._lv_textarea_t, ptr %31, i32 0, i32 1
  %33 = load ptr, ptr %32, align 8, !tbaa !28
  %34 = getelementptr inbounds nuw %struct._lv_obj_t, ptr %33, i32 0, i32 5
  %35 = getelementptr inbounds nuw %struct.lv_area_t, ptr %34, i32 0, i32 0
  %36 = load i32, ptr %35, align 8, !tbaa !48
  %37 = getelementptr inbounds nuw %struct.lv_area_t, ptr %6, i32 0, i32 0
  %38 = load i32, ptr %37, align 4, !tbaa !51
  %39 = add nsw i32 %38, %36
  store i32 %39, ptr %37, align 4, !tbaa !51
  %40 = load ptr, ptr %5, align 8, !tbaa !10
  %41 = getelementptr inbounds nuw %struct._lv_textarea_t, ptr %40, i32 0, i32 1
  %42 = load ptr, ptr %41, align 8, !tbaa !28
  %43 = getelementptr inbounds nuw %struct._lv_obj_t, ptr %42, i32 0, i32 5
  %44 = getelementptr inbounds nuw %struct.lv_area_t, ptr %43, i32 0, i32 1
  %45 = load i32, ptr %44, align 4, !tbaa !55
  %46 = getelementptr inbounds nuw %struct.lv_area_t, ptr %6, i32 0, i32 1
  %47 = load i32, ptr %46, align 4, !tbaa !52
  %48 = add nsw i32 %47, %45
  store i32 %48, ptr %46, align 4, !tbaa !52
  %49 = load ptr, ptr %5, align 8, !tbaa !10
  %50 = getelementptr inbounds nuw %struct._lv_textarea_t, ptr %49, i32 0, i32 1
  %51 = load ptr, ptr %50, align 8, !tbaa !28
  %52 = getelementptr inbounds nuw %struct._lv_obj_t, ptr %51, i32 0, i32 5
  %53 = getelementptr inbounds nuw %struct.lv_area_t, ptr %52, i32 0, i32 0
  %54 = load i32, ptr %53, align 8, !tbaa !48
  %55 = getelementptr inbounds nuw %struct.lv_area_t, ptr %6, i32 0, i32 2
  %56 = load i32, ptr %55, align 4, !tbaa !53
  %57 = add nsw i32 %56, %54
  store i32 %57, ptr %55, align 4, !tbaa !53
  %58 = load ptr, ptr %5, align 8, !tbaa !10
  %59 = getelementptr inbounds nuw %struct._lv_textarea_t, ptr %58, i32 0, i32 1
  %60 = load ptr, ptr %59, align 8, !tbaa !28
  %61 = getelementptr inbounds nuw %struct._lv_obj_t, ptr %60, i32 0, i32 5
  %62 = getelementptr inbounds nuw %struct.lv_area_t, ptr %61, i32 0, i32 1
  %63 = load i32, ptr %62, align 4, !tbaa !55
  %64 = getelementptr inbounds nuw %struct.lv_area_t, ptr %6, i32 0, i32 3
  %65 = load i32, ptr %64, align 4, !tbaa !54
  %66 = add nsw i32 %65, %63
  store i32 %66, ptr %64, align 4, !tbaa !54
  %67 = load ptr, ptr %3, align 8, !tbaa !34
  call void @lv_obj_invalidate_area(ptr noundef %67, ptr noundef %6)
  call void @llvm.lifetime.end.p0(i64 16, ptr %6) #6
  br label %68

68:                                               ; preds = %16, %2
  call void @llvm.lifetime.end.p0(i64 8, ptr %5) #6
  ret void
}