; Function Attrs: nounwind uwtable
define internal void @cursor_blink_anim_cb(ptr noundef %0, i32 noundef %1) #0 {
  %3 = alloca %struct.lv_area_t, align 4
  %4 = getelementptr inbounds nuw i8, ptr %0, i64 140
  %5 = load i8, ptr %4, align 4
  %6 = and i8 %5, 1
  %7 = zext nneg i8 %6 to i32
  %.not = icmp eq i32 %1, %7
  br i1 %.not, label %33, label %8

8:                                                ; preds = %2
  %.not10 = icmp ne i32 %1, 0
  %9 = zext i1 %.not10 to i8
  %10 = and i8 %5, -2
  %11 = or disjoint i8 %10, %9
  store i8 %11, ptr %4, align 4
  call void @llvm.lifetime.start.p0(i64 16, ptr nonnull %3) #10
  %12 = getelementptr inbounds nuw i8, ptr %0, i64 120
  %13 = load i32, ptr %12, align 4, !tbaa !29
  %14 = getelementptr inbounds nuw i8, ptr %0, i64 124
  %15 = load i32, ptr %14, align 4, !tbaa !30
  %16 = getelementptr inbounds nuw i8, ptr %3, i64 4
  %17 = getelementptr inbounds nuw i8, ptr %0, i64 128
  %18 = load i32, ptr %17, align 4, !tbaa !48
  %19 = getelementptr inbounds nuw i8, ptr %3, i64 8
  %20 = getelementptr inbounds nuw i8, ptr %0, i64 132
  %21 = load i32, ptr %20, align 4, !tbaa !49
  %22 = getelementptr inbounds nuw i8, ptr %3, i64 12
  %23 = getelementptr inbounds nuw i8, ptr %0, i64 64
  %24 = load ptr, ptr %23, align 8, !tbaa !22
  %25 = getelementptr inbounds nuw i8, ptr %24, i64 40
  %26 = load i32, ptr %25, align 8, !tbaa !54
  %27 = add nsw i32 %26, %13
  store i32 %27, ptr %3, align 4, !tbaa !29
  %28 = getelementptr inbounds nuw i8, ptr %24, i64 44
  %29 = load i32, ptr %28, align 4, !tbaa !55
  %30 = add nsw i32 %29, %15
  store i32 %30, ptr %16, align 4, !tbaa !30
  %31 = add nsw i32 %26, %18
  store i32 %31, ptr %19, align 4, !tbaa !48
  %32 = add nsw i32 %29, %21
  store i32 %32, ptr %22, align 4, !tbaa !49
  call void @lv_obj_invalidate_area(ptr noundef nonnull %0, ptr noundef nonnull %3) #10
  call void @llvm.lifetime.end.p0(i64 16, ptr nonnull %3) #10
  br label %33

33:                                               ; preds = %8, %2
  ret void
}